target datalayout = "e-m:e-p270:32:32-p271:32:32-p272:64:64-i64:64-i128:128-f80:128-n8:16:32:64-S128"
target triple = "x86_64-pc-linux-gnu"

%struct.bb_state = type { %struct.bb_config, ptr, ptr, ptr, %union.pthread_mutex_t, i64, i64, ptr, i64, i64, i64, ptr, %union.pthread_cond_t, i8, %union.pthread_mutex_t, i64, i32, i32, i64, i64 }
%struct.bb_config = type { ptr, ptr, ptr, ptr, ptr, ptr, ptr, ptr, i32, ptr, ptr, i64, i32, ptr, i32, i32, i32, i32, ptr, ptr, ptr, ptr, i32 }
%union.pthread_cond_t = type { %struct.__pthread_cond_s }
%struct.__pthread_cond_s = type { %union.__atomic_wide_counter, %union.__atomic_wide_counter, [2 x i32], [2 x i32], i32, i32, [2 x i32] }
%union.__atomic_wide_counter = type { i64 }
%union.pthread_mutex_t = type { %struct.__pthread_mutex_s }
%struct.__pthread_mutex_s = type { i32, i32, i32, i32, i32, i16, i16, %struct.__pthread_internal_list }
%struct.__pthread_internal_list = type { ptr, ptr }
%struct.bb_alloc = type { ptr, ptr, ptr, i32, i32, i8, i64, i64, i32, i32, i32, i32, ptr, ptr, i8, ptr, ptr, ptr, ptr, i64, i64, i16, i64, i64, i32 }
%struct.job_record = type { i32, ptr, ptr, ptr, ptr, i16, i32, i32, i32, ptr, i32, ptr, ptr, i16, ptr, double, i64, ptr, ptr, ptr, ptr, ptr, ptr, i32, ptr, i32, i64, i64, i32, i32, ptr, i16, i64, i64, i8, i32, ptr, ptr, ptr, ptr, ptr, ptr, ptr, ptr, i32, ptr, ptr, i32, ptr, i32, ptr, i32, ptr, i32, ptr, ptr, ptr, ptr, ptr, ptr, i32, i16, i64, ptr, ptr, ptr, ptr, %struct.acct_policy_limit_set_t, i16, ptr, ptr, ptr, ptr, ptr, i32, ptr, ptr, ptr, ptr, ptr, i32, i32, ptr, ptr, ptr, i16, ptr, ptr, i8, ptr, ptr, i64, i64, i8, i32, i32, i8, i32, ptr, i32, i64, i32, ptr, ptr, ptr, i8, i16, i64, i32, ptr, ptr, ptr, ptr, ptr, i16, i32, ptr, ptr, ptr, ptr, i32, ptr, i32, i16, i64, ptr, i32, i32, ptr, i64, ptr, ptr, i64, i32, i32, i64, i32, i32, ptr, ptr, ptr, ptr, ptr, ptr, ptr, ptr, ptr, ptr, ptr, ptr, i32, ptr, i16, i16, i16, i16, ptr, i32, i32, i8, i64 }
%struct.acct_policy_limit_set_t = type { i16, i16, ptr }

@.str.1 = private unnamed_addr constant [83 x i8] c"%s: Slurm state inconsistent with burst buffer. %pJ has UserID mismatch (%u != %u)\00", align 1
@__func__.bb_find_alloc_rec = private unnamed_addr constant [18 x i8] c"bb_find_alloc_rec\00", align 1

; Function Attrs: nounwind uwtable
define dso_local ptr @bb_find_alloc_rec(ptr noundef %0, ptr noundef %1) #0 {
  %3 = alloca ptr, align 8
  %4 = alloca ptr, align 8
  %5 = alloca ptr, align 8
  %6 = alloca ptr, align 8
  %7 = alloca i32, align 4
  store ptr %0, ptr %4, align 8
  store ptr %1, ptr %5, align 8
  call void @llvm.lifetime.start.p0(i64 8, ptr %6) #9
  store ptr null, ptr %6, align 8
  %8 = load ptr, ptr %4, align 8
  %9 = getelementptr inbounds nuw %struct.bb_state, ptr %8, i32 0, i32 1
  %10 = load ptr, ptr %9, align 8
  %11 = load ptr, ptr %5, align 8
  %12 = getelementptr inbounds nuw %struct.job_record, ptr %11, i32 0, i32 150
  %13 = load i32, ptr %12, align 8
  %14 = urem i32 %13, 100
  %15 = zext i32 %14 to i64
  %16 = getelementptr inbounds nuw ptr, ptr %10, i64 %15
  %17 = load ptr, ptr %16, align 8
  store ptr %17, ptr %6, align 8
  br label %18

18:                                               ; preds = %48, %2
  %19 = load ptr, ptr %6, align 8
  %20 = icmp ne ptr %19, null
  br i1 %20, label %21, label %52

21:                                               ; preds = %18
  %22 = load ptr, ptr %6, align 8
  %23 = getelementptr inbounds nuw %struct.bb_alloc, ptr %22, i32 0, i32 10
  %24 = load i32, ptr %23, align 8
  %25 = load ptr, ptr %5, align 8
  %26 = getelementptr inbounds nuw %struct.job_record, ptr %25, i32 0, i32 53
  %27 = load i32, ptr %26, align 8
  %28 = icmp eq i32 %24, %27
  br i1 %28, label %29, label %48

29:                                               ; preds = %21
  %30 = load ptr, ptr %6, align 8
  %31 = getelementptr inbounds nuw %struct.bb_alloc, ptr %30, i32 0, i32 24
  %32 = load i32, ptr %31, align 8
  %33 = load ptr, ptr %5, align 8
  %34 = getelementptr inbounds nuw %struct.job_record, ptr %33, i32 0, i32 150
  %35 = load i32, ptr %34, align 8
  %36 = icmp eq i32 %32, %35
  br i1 %36, label %37, label %39

37:                                               ; preds = %29
  %38 = load ptr, ptr %6, align 8
  store ptr %38, ptr %3, align 8
  store i32 1, ptr %7, align 4
  br label %54

39:                                               ; preds = %29
  %40 = load ptr, ptr %5, align 8
  %41 = load ptr, ptr %6, align 8
  %42 = getelementptr inbounds nuw %struct.bb_alloc, ptr %41, i32 0, i32 24
  %43 = load i32, ptr %42, align 8
  %44 = load ptr, ptr %5, align 8
  %45 = getelementptr inbounds nuw %struct.job_record, ptr %44, i32 0, i32 150
  %46 = load i32, ptr %45, align 8
  %47 = call i32 (ptr, ...) @error(ptr noundef @.str.1, ptr noundef @__func__.bb_find_alloc_rec, ptr noundef %40, i32 noundef %43, i32 noundef %46)
  br label %48

48:                                               ; preds = %39, %21
  %49 = load ptr, ptr %6, align 8
  %50 = getelementptr inbounds nuw %struct.bb_alloc, ptr %49, i32 0, i32 13
  %51 = load ptr, ptr %50, align 8
  store ptr %51, ptr %6, align 8
  br label %18, !llvm.loop !21

52:                                               ; preds = %18
  %53 = load ptr, ptr %6, align 8
  store ptr %53, ptr %3, align 8
  store i32 1, ptr %7, align 4
  br label %54

54:                                               ; preds = %52, %37
  call void @llvm.lifetime.end.p0(i64 8, ptr %6) #9
  %55 = load ptr, ptr %3, align 8
  ret ptr %55
}