; Function Attrs: nounwind uwtable
define dso_local ptr @bb_find_alloc_rec(ptr noundef readonly captures(none) %0, ptr noundef %1) local_unnamed_addr #0 {
  %3 = getelementptr inbounds nuw i8, ptr %0, i64 168
  %4 = load ptr, ptr %3, align 8
  %5 = getelementptr inbounds nuw i8, ptr %1, i64 1096
  %6 = load i32, ptr %5, align 8
  %7 = urem i32 %6, 100
  %8 = zext nneg i32 %7 to i64
  %9 = getelementptr inbounds nuw ptr, ptr %4, i64 %8
  %.017 = load ptr, ptr %9, align 8
  %.not18 = icmp eq ptr %.017, null
  br i1 %.not18, label %._crit_edge, label %.lr.ph

.lr.ph:                                           ; preds = %2
  %10 = getelementptr inbounds nuw i8, ptr %1, i64 392
  br label %11

11:                                               ; preds = %.lr.ph, %23
  %.019 = phi ptr [ %.017, %.lr.ph ], [ %.0, %23 ]
  %12 = getelementptr inbounds nuw i8, ptr %.019, i64 64
  %13 = load i32, ptr %12, align 8
  %14 = load i32, ptr %10, align 8
  %15 = icmp eq i32 %13, %14
  br i1 %15, label %16, label %23

16:                                               ; preds = %11
  %17 = getelementptr inbounds nuw i8, ptr %.019, i64 168
  %18 = load i32, ptr %17, align 8
  %19 = load i32, ptr %5, align 8
  %20 = icmp eq i32 %18, %19
  br i1 %20, label %._crit_edge, label %21

21:                                               ; preds = %16
  %22 = tail call i32 (ptr, ...) @error(ptr noundef nonnull @.str.1, ptr noundef nonnull @__func__.bb_find_alloc_rec, ptr noundef nonnull %1, i32 noundef %18, i32 noundef %19) #17
  br label %23

23:                                               ; preds = %21, %11
  %24 = getelementptr inbounds nuw i8, ptr %.019, i64 80
  %.0 = load ptr, ptr %24, align 8
  %.not = icmp eq ptr %.0, null
  br i1 %.not, label %._crit_edge, label %11, !llvm.loop !19

._crit_edge:                                      ; preds = %16, %23, %2
  %.0.lcssa = phi ptr [ null, %2 ], [ null, %23 ], [ %.019, %16 ]
  ret ptr %.0.lcssa
}